#include <math.h>
#include <stdio.h>
#include <stdlib.h>
#include <string.h>

int main()
{
	int a[300],b,i,d,e;
	scanf("%d",&b);
	scanf("\n");
    for(i=0;i<b;i++)
		scanf("%d",&a[i]);
    for(d=b-1;d>0;d--)
	{
	 for(e=1;e<=d;e++)
	 {
	 if(a[d-e]==a[d])
	 {
		a[d]=0;
	    break;
	 }
	 else  continue;
	 }
	}
    printf("%d",a[0]);
	for(i=1;i<b;i++)
    {
		if(a[i]!=0)
	printf(",%d",a[i]);
	}
	printf("\n");
}